(lp0
(L100L
L50L
L200L
L100L
Vdark red
p1
tp2
a(L100L
L50L
L400L
L100L
g1
tp3
a(L100L
L50L
L600L
L100L
g1
tp4
a(L100L
L50L
L800L
L100L
g1
tp5
a(L100L
L50L
L1000L
L100L
g1
tp6
a(L100L
L50L
L1200L
L100L
g1
tp7
a(L100L
L50L
L1400L
L100L
g1
tp8
a.