(lp0
(L100L
L50L
L100L
L100L
Vdark red
p1
tp2
a(L100L
L50L
L220L
L100L
g1
tp3
a(L100L
L50L
L340L
L100L
g1
tp4
a(L100L
L50L
L460L
L100L
g1
tp5
a(L100L
L50L
L580L
L100L
g1
tp6
a(L100L
L50L
L700L
L100L
g1
tp7
a(L100L
L50L
L820L
L100L
g1
tp8
a(L100L
L50L
L940L
L100L
g1
tp9
a(L100L
L50L
L1060L
L100L
g1
tp10
a(L100L
L50L
L1180L
L100L
g1
tp11
a(L100L
L50L
L1300L
L100L
g1
tp12
a(L100L
L50L
L1420L
L100L
g1
tp13
a(L100L
L50L
L60L
L180L
Vdark green
p14
tp15
a(L100L
L50L
L180L
L180L
g14
tp16
a(L100L
L50L
L300L
L180L
g14
tp17
a(L100L
L50L
L420L
L180L
g14
tp18
a(L100L
L50L
L540L
L180L
g14
tp19
a(L100L
L50L
L660L
L180L
g14
tp20
a(L100L
L50L
L780L
L180L
g14
tp21
a(L100L
L50L
L900L
L180L
g14
tp22
a(L100L
L50L
L1020L
L180L
g14
tp23
a(L100L
L50L
L1140L
L180L
g14
tp24
a(L100L
L50L
L1260L
L180L
g14
tp25
a(L100L
L50L
L1380L
L180L
g14
tp26
a(L100L
L50L
L1500L
L180L
g14
tp27
a.